target datalayout = "e-m:e-p270:32:32-p271:32:32-p272:64:64-i64:64-i128:128-f80:128-n8:16:32:64-S128"
target triple = "x86_64-pc-linux-gnu"

%struct.nameData = type { [64 x i8] }
%struct.FormData_pg_class = type { i32, %struct.nameData, i32, i32, i32, i32, i32, i32, i32, i32, float, i32, i32, i8, i8, i8, i8, i16, i16, i8, i8, i8, i8, i8, i8, i8, i8, i32, i32, i32 }

@.str.2 = private unnamed_addr constant [12 x i8] c"tablecmds.c\00", align 1
@allowSystemTableMods = external global i8, align 1
@.str.55 = private unnamed_addr constant [44 x i8] c"permission denied: \22%s\22 is a system catalog\00", align 1
@.str.140 = private unnamed_addr constant [36 x i8] c"cannot rename column of typed table\00", align 1
@__func__.renameatt_check = private unnamed_addr constant [16 x i8] c"renameatt_check\00", align 1
@.str.141 = private unnamed_addr constant [39 x i8] c"cannot rename columns of relation \22%s\22\00", align 1

; Function Attrs: nounwind uwtable
define internal void @renameatt_check(i32 noundef %0, ptr noundef %1, i1 noundef zeroext %2) #0 {
  %4 = alloca i32, align 4
  %5 = alloca ptr, align 8
  %6 = alloca i8, align 1
  %7 = alloca i8, align 1
  store i32 %0, ptr %4, align 4
  store ptr %1, ptr %5, align 8
  %8 = zext i1 %2 to i8
  store i8 %8, ptr %6, align 1
  call void @llvm.lifetime.start.p0(i64 1, ptr %7) #12
  %9 = load ptr, ptr %5, align 8
  %10 = getelementptr inbounds nuw %struct.FormData_pg_class, ptr %9, i32 0, i32 16
  %11 = load i8, ptr %10, align 1
  store i8 %11, ptr %7, align 1
  %12 = load ptr, ptr %5, align 8
  %13 = getelementptr inbounds nuw %struct.FormData_pg_class, ptr %12, i32 0, i32 4
  %14 = load i32, ptr %13, align 4
  %15 = icmp ne i32 %14, 0
  br i1 %15, label %16, label %31

16:                                               ; preds = %3
  %17 = load i8, ptr %6, align 1, !range !6, !noundef !7
  %18 = trunc i8 %17 to i1
  br i1 %18, label %31, label %19

19:                                               ; preds = %16
  br label %20

20:                                               ; preds = %19
  br i1 true, label %21, label %23

21:                                               ; preds = %20
  %22 = call zeroext i1 @errstart_cold(i32 noundef 21, ptr noundef null) #13
  br i1 %22, label %25, label %28

23:                                               ; preds = %20
  %24 = call zeroext i1 @errstart(i32 noundef 21, ptr noundef null)
  br i1 %24, label %25, label %28

25:                                               ; preds = %23, %21
  %26 = call i32 @errcode(i32 noundef 151027844)
  %27 = call i32 (ptr, ...) @errmsg(ptr noundef @.str.140)
  call void @errfinish(ptr noundef @.str.2, i32 noundef 3765, ptr noundef @__func__.renameatt_check)
  br label %28

28:                                               ; preds = %25, %23, %21
  unreachable

29:                                               ; No predecessors!
  br label %30

30:                                               ; preds = %29
  br label %31

31:                                               ; preds = %30, %16, %3
  %32 = load i8, ptr %7, align 1
  %33 = sext i8 %32 to i32
  %34 = icmp ne i32 %33, 114
  br i1 %34, label %35, label %81

35:                                               ; preds = %31
  %36 = load i8, ptr %7, align 1
  %37 = sext i8 %36 to i32
  %38 = icmp ne i32 %37, 118
  br i1 %38, label %39, label %81

39:                                               ; preds = %35
  %40 = load i8, ptr %7, align 1
  %41 = sext i8 %40 to i32
  %42 = icmp ne i32 %41, 109
  br i1 %42, label %43, label %81

43:                                               ; preds = %39
  %44 = load i8, ptr %7, align 1
  %45 = sext i8 %44 to i32
  %46 = icmp ne i32 %45, 99
  br i1 %46, label %47, label %81

47:                                               ; preds = %43
  %48 = load i8, ptr %7, align 1
  %49 = sext i8 %48 to i32
  %50 = icmp ne i32 %49, 105
  br i1 %50, label %51, label %81

51:                                               ; preds = %47
  %52 = load i8, ptr %7, align 1
  %53 = sext i8 %52 to i32
  %54 = icmp ne i32 %53, 73
  br i1 %54, label %55, label %81

55:                                               ; preds = %51
  %56 = load i8, ptr %7, align 1
  %57 = sext i8 %56 to i32
  %58 = icmp ne i32 %57, 102
  br i1 %58, label %59, label %81

59:                                               ; preds = %55
  %60 = load i8, ptr %7, align 1
  %61 = sext i8 %60 to i32
  %62 = icmp ne i32 %61, 112
  br i1 %62, label %63, label %81

63:                                               ; preds = %59
  br label %64

64:                                               ; preds = %63
  br i1 true, label %65, label %67

65:                                               ; preds = %64
  %66 = call zeroext i1 @errstart_cold(i32 noundef 21, ptr noundef null) #13
  br i1 %66, label %69, label %78

67:                                               ; preds = %64
  %68 = call zeroext i1 @errstart(i32 noundef 21, ptr noundef null)
  br i1 %68, label %69, label %78

69:                                               ; preds = %67, %65
  %70 = call i32 @errcode(i32 noundef 151027844)
  %71 = load ptr, ptr %5, align 8
  %72 = getelementptr inbounds nuw %struct.FormData_pg_class, ptr %71, i32 0, i32 1
  %73 = getelementptr inbounds nuw %struct.nameData, ptr %72, i32 0, i32 0
  %74 = getelementptr inbounds [64 x i8], ptr %73, i64 0, i64 0
  %75 = call i32 (ptr, ...) @errmsg(ptr noundef @.str.141, ptr noundef %74)
  %76 = load i8, ptr %7, align 1
  %77 = call i32 @errdetail_relkind_not_supported(i8 noundef signext %76)
  call void @errfinish(ptr noundef @.str.2, i32 noundef 3786, ptr noundef @__func__.renameatt_check)
  br label %78

78:                                               ; preds = %69, %67, %65
  unreachable

79:                                               ; No predecessors!
  br label %80

80:                                               ; preds = %79
  br label %81

81:                                               ; preds = %80, %59, %55, %51, %47, %43, %39, %35, %31
  %82 = load i32, ptr %4, align 4
  %83 = call i32 @GetUserId()
  %84 = call zeroext i1 @object_ownercheck(i32 noundef 1259, i32 noundef %82, i32 noundef %83)
  br i1 %84, label %93, label %85

85:                                               ; preds = %81
  %86 = load i32, ptr %4, align 4
  %87 = call signext i8 @get_rel_relkind(i32 noundef %86)
  %88 = call i32 @get_relkind_objtype(i8 noundef signext %87)
  %89 = load ptr, ptr %5, align 8
  %90 = getelementptr inbounds nuw %struct.FormData_pg_class, ptr %89, i32 0, i32 1
  %91 = getelementptr inbounds nuw %struct.nameData, ptr %90, i32 0, i32 0
  %92 = getelementptr inbounds [64 x i8], ptr %91, i64 0, i64 0
  call void @aclcheck_error(i32 noundef 2, i32 noundef %88, ptr noundef %92)
  br label %93

93:                                               ; preds = %85, %81
  %94 = load i8, ptr @allowSystemTableMods, align 1, !range !6, !noundef !7
  %95 = trunc i8 %94 to i1
  br i1 %95, label %116, label %96

96:                                               ; preds = %93
  %97 = load i32, ptr %4, align 4
  %98 = load ptr, ptr %5, align 8
  %99 = call zeroext i1 @IsSystemClass(i32 noundef %97, ptr noundef %98)
  br i1 %99, label %100, label %116

100:                                              ; preds = %96
  br label %101

101:                                              ; preds = %100
  br i1 true, label %102, label %104

102:                                              ; preds = %101
  %103 = call zeroext i1 @errstart_cold(i32 noundef 21, ptr noundef null) #13
  br i1 %103, label %106, label %113

104:                                              ; preds = %101
  %105 = call zeroext i1 @errstart(i32 noundef 21, ptr noundef null)
  br i1 %105, label %106, label %113

106:                                              ; preds = %104, %102
  %107 = call i32 @errcode(i32 noundef 16797828)
  %108 = load ptr, ptr %5, align 8
  %109 = getelementptr inbounds nuw %struct.FormData_pg_class, ptr %108, i32 0, i32 1
  %110 = getelementptr inbounds nuw %struct.nameData, ptr %109, i32 0, i32 0
  %111 = getelementptr inbounds [64 x i8], ptr %110, i64 0, i64 0
  %112 = call i32 (ptr, ...) @errmsg(ptr noundef @.str.55, ptr noundef %111)
  call void @errfinish(ptr noundef @.str.2, i32 noundef 3798, ptr noundef @__func__.renameatt_check)
  br label %113

113:                                              ; preds = %106, %104, %102
  unreachable

114:                                              ; No predecessors!
  br label %115

115:                                              ; preds = %114
  br label %116

116:                                              ; preds = %115, %96, %93
  call void @llvm.lifetime.end.p0(i64 1, ptr %7) #12
  ret void
}