; Function Attrs: nounwind uwtable
define internal fastcc void @renameatt_check(i32 noundef %0, ptr noundef %1, i1 noundef zeroext %2) unnamed_addr #0 {
  %4 = getelementptr inbounds nuw i8, ptr %1, i64 115
  %5 = load i8, ptr %4, align 1
  %6 = getelementptr inbounds nuw i8, ptr %1, i64 76
  %7 = load i32, ptr %6, align 4
  %.not = icmp eq i32 %7, 0
  %brmerge = or i1 %2, %.not
  br i1 %brmerge, label %12, label %8

8:                                                ; preds = %3
  %9 = tail call zeroext i1 @errstart_cold(i32 noundef 21, ptr noundef null) #16
  tail call void @llvm.assume(i1 %9)
  %10 = tail call i32 @errcode(i32 noundef 151027844) #15
  %11 = tail call i32 (ptr, ...) @errmsg(ptr noundef nonnull @.str.140) #15
  tail call void @errfinish(ptr noundef nonnull @.str.2, i32 noundef 3765, ptr noundef nonnull @__func__.renameatt_check) #15
  unreachable

12:                                               ; preds = %3
  switch i8 %5, label %13 [
    i8 118, label %19
    i8 114, label %19
    i8 112, label %19
    i8 109, label %19
    i8 105, label %19
    i8 102, label %19
    i8 99, label %19
    i8 73, label %19
  ]

13:                                               ; preds = %12
  %14 = tail call zeroext i1 @errstart_cold(i32 noundef 21, ptr noundef null) #16
  tail call void @llvm.assume(i1 %14)
  %15 = tail call i32 @errcode(i32 noundef 151027844) #15
  %16 = getelementptr inbounds nuw i8, ptr %1, i64 4
  %17 = tail call i32 (ptr, ...) @errmsg(ptr noundef nonnull @.str.141, ptr noundef nonnull %16) #15
  %18 = tail call i32 @errdetail_relkind_not_supported(i8 noundef signext %5) #15
  tail call void @errfinish(ptr noundef nonnull @.str.2, i32 noundef 3786, ptr noundef nonnull @__func__.renameatt_check) #15
  unreachable

19:                                               ; preds = %12, %12, %12, %12, %12, %12, %12, %12
  %20 = tail call i32 @GetUserId() #15
  %21 = tail call zeroext i1 @object_ownercheck(i32 noundef 1259, i32 noundef %0, i32 noundef %20) #15
  br i1 %21, label %26, label %22

22:                                               ; preds = %19
  %23 = tail call signext i8 @get_rel_relkind(i32 noundef %0) #15
  %24 = tail call i32 @get_relkind_objtype(i8 noundef signext %23) #15
  %25 = getelementptr inbounds nuw i8, ptr %1, i64 4
  tail call void @aclcheck_error(i32 noundef 2, i32 noundef %24, ptr noundef nonnull %25) #15
  br label %26

26:                                               ; preds = %22, %19
  %27 = load i8, ptr @allowSystemTableMods, align 1, !range !6, !noundef !7
  %28 = trunc nuw i8 %27 to i1
  br i1 %28, label %36, label %29

29:                                               ; preds = %26
  %30 = tail call zeroext i1 @IsSystemClass(i32 noundef %0, ptr noundef nonnull %1) #15
  br i1 %30, label %31, label %36

31:                                               ; preds = %29
  %32 = tail call zeroext i1 @errstart_cold(i32 noundef 21, ptr noundef null) #16
  tail call void @llvm.assume(i1 %32)
  %33 = tail call i32 @errcode(i32 noundef 16797828) #15
  %34 = getelementptr inbounds nuw i8, ptr %1, i64 4
  %35 = tail call i32 (ptr, ...) @errmsg(ptr noundef nonnull @.str.55, ptr noundef nonnull %34) #15
  tail call void @errfinish(ptr noundef nonnull @.str.2, i32 noundef 3798, ptr noundef nonnull @__func__.renameatt_check) #15
  unreachable

36:                                               ; preds = %29, %26
  ret void
}